Certificate:
    Data:
        Version: 3 (0x2)
        Serial Number: 1 (0x1)
        Signature Algorithm: sha256WithRSAEncryption
        Issuer: CN=OpenCore
        Validity
            Not Before: Apr 26 09:13:36 2017 GMT
            Not After : Apr 24 09:13:36 2027 GMT
        Subject: CN=OpenVPN Server
        Subject Public Key Info:
            Public Key Algorithm: rsaEncryption
            RSA Public Key: (4096 bit)
                Modulus (4096 bit):
                    00:b3:a4:f6:2c:a2:64:d5:7a:2f:7c:c9:23:be:0d:
                    9a:77:7b:27:eb:77:e4:96:fd:35:34:31:2d:8e:b3:
                    6d:47:62:98:03:53:a6:52:08:36:4c:f9:1f:0e:ce:
                    4a:ee:f6:21:25:aa:f3:ba:d0:f4:ef:80:a1:e8:0b:
                    dc:7a:ac:33:77:04:74:16:f8:f5:d1:04:5f:83:28:
                    e8:92:36:f2:33:88:18:88:01:d7:d3:c2:53:cd:df:
                    7a:b3:54:c7:8f:ea:1e:63:6a:18:f2:5f:a0:62:f1:
                    79:75:47:15:2e:43:a5:7c:ac:3b:77:82:80:7e:9e:
                    cc:40:75:57:3a:a9:bc:cc:61:08:5c:f3:44:8a:a6:
                    8c:08:79:a8:28:9c:79:4a:c8:7a:29:42:a9:40:fc:
                    25:4d:b6:da:e4:66:29:bb:d9:50:47:8d:a8:32:dc:
                    6a:de:5c:71:d4:9e:ee:88:51:8f:14:53:e6:3a:99:
                    c7:1e:a8:99:b6:b2:97:69:9a:e5:a8:13:c3:59:ab:
                    3c:75:c5:f7:85:42:dd:8b:72:c4:a1:b0:60:76:8c:
                    16:98:a9:b6:08:7a:d7:e4:32:9b:f3:2c:a1:e3:6d:
                    8b:69:46:10:fe:9a:2f:54:73:35:df:1b:8a:c4:73:
                    a0:13:55:8c:06:30:62:0f:d4:b0:87:1d:3a:91:71:
                    8c:df:e2:3d:e4:3d:f2:4e:89:94:04:08:87:84:fc:
                    24:b8:db:83:d5:3e:7b:74:4a:be:a5:a6:ed:8a:5a:
                    89:fe:55:c0:88:0c:65:5d:66:36:b5:e0:6e:53:c5:
                    45:55:80:27:45:04:e5:c7:ce:7a:91:bc:93:7f:c8:
                    b9:9b:74:f0:8f:a7:99:11:8b:83:0a:31:78:66:c4:
                    cd:a4:c1:f6:50:7b:35:6a:a4:1f:71:38:ad:7e:cb:
                    bc:93:88:03:2c:a2:72:f1:fb:ac:59:68:85:a2:ae:
                    19:71:0b:ab:cd:61:8b:79:13:c4:99:50:d1:1c:98:
                    aa:75:dc:5a:4a:68:30:ab:b0:27:51:7c:dc:71:5a:
                    5b:81:58:50:01:66:b5:59:cc:2a:63:cd:6d:b6:8d:
                    94:c7:5e:ae:73:bb:b8:3b:2e:2a:9d:c3:d8:c5:c7:
                    b1:53:45:ba:11:fe:78:7e:b6:87:91:65:f8:a5:55:
                    18:5a:26:47:65:c4:a0:84:ae:39:e0:a5:11:ff:71:
                    06:6a:02:8b:1a:53:47:e2:ea:7d:06:c1:2b:83:33:
                    8a:45:c5:05:3a:ee:f8:5a:5c:ca:f4:35:c5:0f:f9:
                    12:b8:3a:cd:59:c2:97:93:b2:2a:f3:6d:76:63:a8:
                    d4:4d:f3:1b:ba:95:3f:87:12:3c:c0:f6:91:93:b8:
                    10:e9:d7
                Exponent: 65537 (0x10001)
        X509v3 extensions:
            X509v3 Basic Constraints: 
                CA:FALSE
            X509v3 Subject Key Identifier: 
                DB:1A:BA:01:1A:1B:D6:47:D0:AB:2B:7A:77:11:59:F1:B2:76:EF:DD
            X509v3 Authority Key Identifier: 
                keyid:BE:E2:6E:F7:A7:D9:50:A6:DA:E3:A8:75:FD:B1:AE:CF:EC:54:0F:D2
                DirName:/CN=OpenCore
                serial:B9:1A:9D:3D:44:5E:B1:EF

            X509v3 Extended Key Usage: 
                TLS Web Server Authentication
            X509v3 Key Usage: 
                Digital Signature, Key Encipherment
    Signature Algorithm: sha256WithRSAEncryption
        63:93:cb:c5:df:c4:2a:94:1c:c4:6d:e3:d6:be:36:2d:65:61:
        34:54:f4:ba:83:40:4a:09:84:80:ba:b6:e9:3f:56:85:c8:a7:
        70:5c:ca:a0:66:8e:23:2a:5c:60:07:5d:7e:84:d3:38:0b:0b:
        4d:69:08:42:12:f3:36:61:f9:5d:29:3a:40:46:57:15:9d:9c:
        50:33:54:2c:82:bd:ae:1c:c7:b6:be:eb:fb:5f:e7:c1:31:39:
        f8:d9:a0:b2:33:2c:a5:b1:29:a0:e9:30:ff:7f:8a:41:ff:72:
        63:6d:03:ab:3f:ac:65:34:4a:72:01:38:02:a7:06:bb:cd:2f:
        9e:be:c7:ac:aa:cb:10:48:8a:eb:bd:45:7b:04:80:a8:82:92:
        18:0c:3d:26:36:3a:f3:05:5f:ed:ea:ea:0a:48:0a:76:69:11:
        4f:99:20:38:8a:7a:4b:25:0d:17:dd:46:6a:16:6f:75:f8:bf:
        16:41:42:29:b3:f2:b6:35:d7:87:e8:76:88:0b:32:ff:4f:ce:
        ea:5b:99:3b:aa:ce:4e:f7:e5:40:25:e2:70:15:67:6c:a1:67:
        b2:0c:72:66:05:f3:17:ac:51:91:1d:20:0c:4f:80:7a:10:75:
        f6:32:86:98:09:61:87:dd:38:59:e8:84:c3:70:8c:03:e4:e2:
        12:ff:d3:66:b6:58:45:a7:96:ee:38:48:f3:c5:a9:d3:fd:69:
        d7:bd:fd:33:34:b8:64:79:ef:67:0b:04:59:eb:0d:4c:13:31:
        ba:4f:d8:42:f4:ec:c4:fe:2c:2d:e6:e5:45:50:c4:83:56:18:
        90:82:4c:cd:1a:f8:d6:ad:ff:1a:3e:6c:78:5c:9f:28:33:dd:
        e1:cb:12:bb:2f:13:94:c0:70:47:22:38:5c:60:95:3c:37:68:
        70:e8:8a:f4:4a:3f:f9:16:02:7f:e4:6f:b4:b8:ba:12:bd:57:
        13:23:f9:9e:7f:ab:12:c3:49:3d:65:48:1a:9d:2b:95:94:9d:
        20:30:30:9f:44:be:7d:a5:6a:cd:e1:bc:93:da:73:4e:f4:3d:
        c9:19:39:c4:06:74:ac:3c:00:f4:9c:85:0e:07:ef:4b:00:9e:
        6e:35:c5:33:ba:10:58:c5:c7:77:0d:0a:3a:2c:cc:ce:01:65:
        b1:09:78:21:7f:b6:ee:8f:43:9d:86:34:56:12:58:95:42:25:
        28:10:ac:a7:51:8e:34:e3:3d:5e:96:bc:81:0f:a5:a2:98:f5:
        16:41:dc:4b:ef:be:5f:da:db:67:76:8b:fb:c0:95:8c:7d:fa:
        1c:6c:db:f1:ae:ce:5b:16:bf:9d:4a:ff:18:11:2d:05:98:58:
        72:9d:60:10:7c:af:ad:53
-----BEGIN CERTIFICATE-----
MIIFPDCCAySgAwIBAgIBATANBgkqhkiG9w0BAQsFADATMREwDwYDVQQDDAhPcGVu
Q29yZTAeFw0xNzA0MjYwOTEzMzZaFw0yNzA0MjQwOTEzMzZaMBkxFzAVBgNVBAMM
Dk9wZW5WUE4gU2VydmVyMIICIjANBgkqhkiG9w0BAQEFAAOCAg8AMIICCgKCAgEA
s6T2LKJk1XovfMkjvg2ad3sn63fklv01NDEtjrNtR2KYA1OmUgg2TPkfDs5K7vYh
JarzutD074Ch6AvceqwzdwR0Fvj10QRfgyjokjbyM4gYiAHX08JTzd96s1THj+oe
Y2oY8l+gYvF5dUcVLkOlfKw7d4KAfp7MQHVXOqm8zGEIXPNEiqaMCHmoKJx5Ssh6
KUKpQPwlTbba5GYpu9lQR42oMtxq3lxx1J7uiFGPFFPmOpnHHqiZtrKXaZrlqBPD
Was8dcX3hULdi3LEobBgdowWmKm2CHrX5DKb8yyh422LaUYQ/povVHM13xuKxHOg
E1WMBjBiD9Swhx06kXGM3+I95D3yTomUBAiHhPwkuNuD1T57dEq+pabtilqJ/lXA
iAxlXWY2teBuU8VFVYAnRQTlx856kbyTf8i5m3Twj6eZEYuDCjF4ZsTNpMH2UHs1
aqQfcTitfsu8k4gDLKJy8fusWWiFoq4ZcQurzWGLeRPEmVDRHJiqddxaSmgwq7An
UXzccVpbgVhQAWa1WcwqY81tto2Ux16uc7u4Oy4qncPYxcexU0W6Ef54fraHkWX4
pVUYWiZHZcSghK454KUR/3EGagKLGlNH4up9BsErgzOKRcUFOu74WlzK9DXFD/kS
uDrNWcKXk7Iq8212Y6jUTfMbupU/hxI8wPaRk7gQ6dcCAwEAAaOBlDCBkTAJBgNV
HRMEAjAAMB0GA1UdDgQWBBTbGroBGhvWR9CrK3p3EVnxsnbv3TBDBgNVHSMEPDA6
gBS+4m73p9lQptrjqHX9sa7P7FQP0qEXpBUwEzERMA8GA1UEAwwIT3BlbkNvcmWC
CQC5Gp09RF6x7zATBgNVHSUEDDAKBggrBgEFBQcDATALBgNVHQ8EBAMCBaAwDQYJ
KoZIhvcNAQELBQADggIBAGOTy8XfxCqUHMRt49a+Ni1lYTRU9LqDQEoJhIC6tuk/
VoXIp3BcyqBmjiMqXGAHXX6E0zgLC01pCEIS8zZh+V0pOkBGVxWdnFAzVCyCva4c
x7a+6/tf58ExOfjZoLIzLKWxKaDpMP9/ikH/cmNtA6s/rGU0SnIBOAKnBrvNL56+
x6yqyxBIiuu9RXsEgKiCkhgMPSY2OvMFX+3q6gpICnZpEU+ZIDiKekslDRfdRmoW
b3X4vxZBQimz8rY114fodogLMv9PzupbmTuqzk735UAl4nAVZ2yhZ7IMcmYF8xes
UZEdIAxPgHoQdfYyhpgJYYfdOFnohMNwjAPk4hL/02a2WEWnlu44SPPFqdP9ade9
/TM0uGR572cLBFnrDUwTMbpP2EL07MT+LC3m5UVQxINWGJCCTM0a+Nat/xo+bHhc
nygz3eHLErsvE5TAcEciOFxglTw3aHDoivRKP/kWAn/kb7S4uhK9VxMj+Z5/qxLD
ST1lSBqdK5WUnSAwMJ9Evn2las3hvJPac070PckZOcQGdKw8APSchQ4H70sAnm41
xTO6EFjFx3cNCjoszM4BZbEJeCF/tu6PQ52GNFYSWJVCJSgQrKdRjjTjPV6WvIEP
paKY9RZB3Evvvl/a22d2i/vAlYx9+hxs2/GuzlsWv51K/xgRLQWYWHKdYBB8r61T
-----END CERTIFICATE-----
